target datalayout = "e-m:e-p270:32:32-p271:32:32-p272:64:64-i64:64-i128:128-f80:128-n8:16:32:64-S128"
target triple = "x86_64-pc-linux-gnu"

%"class.absl::time_internal::cctz::TimeZoneInfo" = type { %"class.absl::time_internal::cctz::TimeZoneIf", %"class.std::vector", %"class.std::vector.0", i8, %"class.std::__cxx11::basic_string", %"class.std::__cxx11::basic_string", %"class.std::__cxx11::basic_string", i8, i64, %"struct.std::atomic", %"struct.std::atomic" }
%"class.absl::time_internal::cctz::TimeZoneIf" = type { ptr }
%"class.std::vector" = type { %"struct.std::_Vector_base" }
%"struct.std::_Vector_base" = type { %"struct.std::_Vector_base<absl::time_internal::cctz::Transition, std::allocator<absl::time_internal::cctz::Transition>>::_Vector_impl" }
%"struct.std::_Vector_base<absl::time_internal::cctz::Transition, std::allocator<absl::time_internal::cctz::Transition>>::_Vector_impl" = type { %"struct.std::_Vector_base<absl::time_internal::cctz::Transition, std::allocator<absl::time_internal::cctz::Transition>>::_Vector_impl_data" }
%"struct.std::_Vector_base<absl::time_internal::cctz::Transition, std::allocator<absl::time_internal::cctz::Transition>>::_Vector_impl_data" = type { ptr, ptr, ptr }
%"class.std::vector.0" = type { %"struct.std::_Vector_base.1" }
%"struct.std::_Vector_base.1" = type { %"struct.std::_Vector_base<absl::time_internal::cctz::TransitionType, std::allocator<absl::time_internal::cctz::TransitionType>>::_Vector_impl" }
%"struct.std::_Vector_base<absl::time_internal::cctz::TransitionType, std::allocator<absl::time_internal::cctz::TransitionType>>::_Vector_impl" = type { %"struct.std::_Vector_base<absl::time_internal::cctz::TransitionType, std::allocator<absl::time_internal::cctz::TransitionType>>::_Vector_impl_data" }
%"struct.std::_Vector_base<absl::time_internal::cctz::TransitionType, std::allocator<absl::time_internal::cctz::TransitionType>>::_Vector_impl_data" = type { ptr, ptr, ptr }
%"class.std::__cxx11::basic_string" = type { %"struct.std::__cxx11::basic_string<char>::_Alloc_hider", i64, %union.anon }
%"struct.std::__cxx11::basic_string<char>::_Alloc_hider" = type { ptr }
%union.anon = type { i64, [8 x i8] }
%"struct.std::atomic" = type { %"struct.std::__atomic_base" }
%"struct.std::__atomic_base" = type { i64 }
%"struct.absl::time_internal::cctz::TransitionType" = type <{ i32, [4 x i8], %"class.absl::time_internal::cctz::detail::civil_time", %"class.absl::time_internal::cctz::detail::civil_time", i8, i8, [6 x i8] }>
%"class.absl::time_internal::cctz::detail::civil_time" = type { %"struct.absl::time_internal::cctz::detail::fields" }
%"struct.absl::time_internal::cctz::detail::fields" = type <{ i64, i8, i8, i8, i8, i8, [3 x i8] }>

; Function Attrs: mustprogress nounwind uwtable
define linkonce_odr dso_local noundef nonnull align 8 dereferenceable(42) ptr @_ZNKSt6vectorIN4absl13time_internal4cctz14TransitionTypeESaIS3_EEixEm(ptr noundef nonnull align 8 dereferenceable(24) %0, i64 noundef %1) #2 comdat align 2 {
  %3 = alloca ptr, align 8
  %4 = alloca i64, align 8
  store ptr %0, ptr %3, align 8, !tbaa !34
  store i64 %1, ptr %4, align 8, !tbaa !9
  %5 = load ptr, ptr %3, align 8
  %6 = getelementptr inbounds nuw %"struct.std::_Vector_base.1", ptr %5, i32 0, i32 0
  %7 = getelementptr inbounds nuw %"struct.std::_Vector_base<absl::time_internal::cctz::TransitionType, std::allocator<absl::time_internal::cctz::TransitionType>>::_Vector_impl_data", ptr %6, i32 0, i32 0
  %8 = load ptr, ptr %7, align 8, !tbaa !38
  %9 = load i64, ptr %4, align 8, !tbaa !9
  %10 = getelementptr inbounds nuw %"struct.absl::time_internal::cctz::TransitionType", ptr %8, i64 %9
  ret ptr %10
}

; Function Attrs: mustprogress nounwind uwtable
define dso_local noundef zeroext i1 @_ZNK4absl13time_internal4cctz12TimeZoneInfo16EquivTransitionsEhh(ptr noundef nonnull align 8 dereferenceable(192) %0, i8 noundef zeroext %1, i8 noundef zeroext %2) #2 align 2 {
  %4 = alloca i1, align 1
  %5 = alloca ptr, align 8
  %6 = alloca i8, align 1
  %7 = alloca i8, align 1
  %8 = alloca ptr, align 8
  %9 = alloca ptr, align 8
  %10 = alloca i32, align 4
  store ptr %0, ptr %5, align 8, !tbaa !4
  store i8 %1, ptr %6, align 1, !tbaa !30
  store i8 %2, ptr %7, align 1, !tbaa !30
  %11 = load ptr, ptr %5, align 8
  %12 = load i8, ptr %6, align 1, !tbaa !30
  %13 = zext i8 %12 to i32
  %14 = load i8, ptr %7, align 1, !tbaa !30
  %15 = zext i8 %14 to i32
  %16 = icmp eq i32 %13, %15
  br i1 %16, label %17, label %18

17:                                               ; preds = %3
  store i1 true, ptr %4, align 1
  br label %61

18:                                               ; preds = %3
  call void @llvm.lifetime.start.p0(i64 8, ptr %8) #17
  %19 = getelementptr inbounds nuw %"class.absl::time_internal::cctz::TimeZoneInfo", ptr %11, i32 0, i32 2
  %20 = load i8, ptr %6, align 1, !tbaa !30
  %21 = zext i8 %20 to i64
  %22 = call noundef nonnull align 8 dereferenceable(42) ptr @_ZNKSt6vectorIN4absl13time_internal4cctz14TransitionTypeESaIS3_EEixEm(ptr noundef nonnull align 8 dereferenceable(24) %19, i64 noundef %21) #17
  store ptr %22, ptr %8, align 8, !tbaa !17
  call void @llvm.lifetime.start.p0(i64 8, ptr %9) #17
  %23 = getelementptr inbounds nuw %"class.absl::time_internal::cctz::TimeZoneInfo", ptr %11, i32 0, i32 2
  %24 = load i8, ptr %7, align 1, !tbaa !30
  %25 = zext i8 %24 to i64
  %26 = call noundef nonnull align 8 dereferenceable(42) ptr @_ZNKSt6vectorIN4absl13time_internal4cctz14TransitionTypeESaIS3_EEixEm(ptr noundef nonnull align 8 dereferenceable(24) %23, i64 noundef %25) #17
  store ptr %26, ptr %9, align 8, !tbaa !17
  %27 = load ptr, ptr %8, align 8, !tbaa !17
  %28 = getelementptr inbounds nuw %"struct.absl::time_internal::cctz::TransitionType", ptr %27, i32 0, i32 0
  %29 = load i32, ptr %28, align 8, !tbaa !24
  %30 = load ptr, ptr %9, align 8, !tbaa !17
  %31 = getelementptr inbounds nuw %"struct.absl::time_internal::cctz::TransitionType", ptr %30, i32 0, i32 0
  %32 = load i32, ptr %31, align 8, !tbaa !24
  %33 = icmp ne i32 %29, %32
  br i1 %33, label %34, label %35

34:                                               ; preds = %18
  store i1 false, ptr %4, align 1
  store i32 1, ptr %10, align 4
  br label %60

35:                                               ; preds = %18
  %36 = load ptr, ptr %8, align 8, !tbaa !17
  %37 = getelementptr inbounds nuw %"struct.absl::time_internal::cctz::TransitionType", ptr %36, i32 0, i32 4
  %38 = load i8, ptr %37, align 8, !tbaa !25, !range !26, !noundef !27
  %39 = trunc i8 %38 to i1
  %40 = zext i1 %39 to i32
  %41 = load ptr, ptr %9, align 8, !tbaa !17
  %42 = getelementptr inbounds nuw %"struct.absl::time_internal::cctz::TransitionType", ptr %41, i32 0, i32 4
  %43 = load i8, ptr %42, align 8, !tbaa !25, !range !26, !noundef !27
  %44 = trunc i8 %43 to i1
  %45 = zext i1 %44 to i32
  %46 = icmp ne i32 %40, %45
  br i1 %46, label %47, label %48

47:                                               ; preds = %35
  store i1 false, ptr %4, align 1
  store i32 1, ptr %10, align 4
  br label %60

48:                                               ; preds = %35
  %49 = load ptr, ptr %8, align 8, !tbaa !17
  %50 = getelementptr inbounds nuw %"struct.absl::time_internal::cctz::TransitionType", ptr %49, i32 0, i32 5
  %51 = load i8, ptr %50, align 1, !tbaa !19
  %52 = zext i8 %51 to i32
  %53 = load ptr, ptr %9, align 8, !tbaa !17
  %54 = getelementptr inbounds nuw %"struct.absl::time_internal::cctz::TransitionType", ptr %53, i32 0, i32 5
  %55 = load i8, ptr %54, align 1, !tbaa !19
  %56 = zext i8 %55 to i32
  %57 = icmp ne i32 %52, %56
  br i1 %57, label %58, label %59

58:                                               ; preds = %48
  store i1 false, ptr %4, align 1
  store i32 1, ptr %10, align 4
  br label %60

59:                                               ; preds = %48
  store i1 true, ptr %4, align 1
  store i32 1, ptr %10, align 4
  br label %60

60:                                               ; preds = %59, %58, %47, %34
  call void @llvm.lifetime.end.p0(i64 8, ptr %9) #17
  call void @llvm.lifetime.end.p0(i64 8, ptr %8) #17
  br label %61

61:                                               ; preds = %60, %17
  %62 = load i1, ptr %4, align 1
  ret i1 %62
}