; Function Attrs: mustprogress nofree norecurse nosync nounwind willreturn memory(read, inaccessiblemem: none) uwtable
define dso_local noundef zeroext i1 @_ZNK4absl13time_internal4cctz12TimeZoneInfo16EquivTransitionsEhh(ptr noundef nonnull readonly align 8 captures(none) dereferenceable(192) %0, i8 noundef zeroext %1, i8 noundef zeroext %2) local_unnamed_addr #2 align 2 {
  %4 = icmp eq i8 %1, %2
  br i1 %4, label %24, label %5

5:                                                ; preds = %3
  %6 = getelementptr inbounds nuw i8, ptr %0, i64 32
  %7 = zext i8 %1 to i64
  %8 = load ptr, ptr %6, align 8, !tbaa !15
  %9 = getelementptr inbounds nuw %"struct.absl::time_internal::cctz::TransitionType", ptr %8, i64 %7
  %10 = zext i8 %2 to i64
  %11 = getelementptr inbounds nuw %"struct.absl::time_internal::cctz::TransitionType", ptr %8, i64 %10
  %12 = load i32, ptr %9, align 8, !tbaa !23
  %13 = load i32, ptr %11, align 8, !tbaa !23
  %.not = icmp eq i32 %12, %13
  br i1 %.not, label %14, label %24

14:                                               ; preds = %5
  %15 = getelementptr inbounds nuw i8, ptr %9, i64 40
  %16 = load i8, ptr %15, align 8, !tbaa !24, !range !25, !noundef !26
  %17 = getelementptr inbounds nuw i8, ptr %11, i64 40
  %18 = load i8, ptr %17, align 8, !tbaa !24, !range !25, !noundef !26
  %.not11 = icmp eq i8 %16, %18
  br i1 %.not11, label %19, label %24

19:                                               ; preds = %14
  %20 = getelementptr inbounds nuw i8, ptr %9, i64 41
  %21 = load i8, ptr %20, align 1, !tbaa !16
  %22 = getelementptr inbounds nuw i8, ptr %11, i64 41
  %23 = load i8, ptr %22, align 1, !tbaa !16
  %.not12 = icmp eq i8 %21, %23
  br label %24

24:                                               ; preds = %5, %14, %19, %3
  %.0 = phi i1 [ true, %3 ], [ false, %5 ], [ false, %14 ], [ %.not12, %19 ]
  ret i1 %.0
}